target datalayout = "e-m:e-p270:32:32-p271:32:32-p272:64:64-i64:64-i128:128-f80:128-n8:16:32:64-S128"
target triple = "x86_64-pc-linux-gnu"

%"class.std::vector" = type { %"struct.std::_Vector_base" }
%"struct.std::_Vector_base" = type { %"struct.std::_Vector_base<float, std::allocator<float>>::_Vector_impl" }
%"struct.std::_Vector_base<float, std::allocator<float>>::_Vector_impl" = type { %"struct.std::_Vector_base<float, std::allocator<float>>::_Vector_impl_data" }
%"struct.std::_Vector_base<float, std::allocator<float>>::_Vector_impl_data" = type { ptr, ptr, ptr }
%"struct.faiss::ScalarQuantizer::SQuantizer" = type { ptr }
%"struct.faiss::(anonymous namespace)::QuantizerTemplate.6" = type { %"struct.faiss::ScalarQuantizer::SQuantizer", i64, float, float }
%"struct.faiss::ScalarQuantizer::SQDistanceComputer" = type { %"struct.faiss::FlatCodesDistanceComputer", ptr }
%"struct.faiss::FlatCodesDistanceComputer" = type { %"struct.faiss::DistanceComputer", ptr, i64 }
%"struct.faiss::DistanceComputer" = type { ptr }
%"struct.faiss::(anonymous namespace)::DCTemplate.9" = type { %"struct.faiss::ScalarQuantizer::SQDistanceComputer", %"struct.faiss::(anonymous namespace)::QuantizerTemplate.6" }
%"struct.faiss::(anonymous namespace)::SimilarityL2" = type <{ ptr, ptr, float, [4 x i8] }>
%"struct.faiss::InvertedListScanner" = type { ptr, i64, i8, i8, ptr, i64 }
%"struct.faiss::(anonymous namespace)::IVFSQScannerL2.31" = type { %"struct.faiss::InvertedListScanner", %"struct.faiss::(anonymous namespace)::DCTemplate.9", i8, ptr, ptr, %"class.std::vector" }

; Function Attrs: mustprogress nounwind uwtable
define internal void @_ZN5faiss12_GLOBAL__N_112SimilarityL2ILi1EEC2EPKf(ptr noundef nonnull align 8 dereferenceable(20) %0, ptr noundef %1) unnamed_addr #1 align 2 {
  %3 = alloca ptr, align 8
  %4 = alloca ptr, align 8
  store ptr %0, ptr %3, align 8
  store ptr %1, ptr %4, align 8
  %5 = load ptr, ptr %3, align 8
  %6 = getelementptr inbounds %"struct.faiss::(anonymous namespace)::SimilarityL2", ptr %5, i32 0, i32 0
  %7 = load ptr, ptr %4, align 8
  store ptr %7, ptr %6, align 8
  ret void
}

; Function Attrs: mustprogress uwtable
define internal noundef float @_ZNK5faiss12_GLOBAL__N_110DCTemplateINS0_17QuantizerTemplateINS0_9Codec4bitELb1ELi1EEENS0_12SimilarityL2ILi1EEELi1EE16compute_distanceEPKfPKh(ptr noundef nonnull align 8 dereferenceable(56) %0, ptr noundef %1, ptr noundef %2) #0 align 2 {
  %4 = alloca ptr, align 8
  %5 = alloca i32, align 4
  %6 = alloca ptr, align 8
  %7 = alloca ptr, align 8
  %8 = alloca i32, align 4
  %9 = alloca float, align 4
  %10 = alloca ptr, align 8
  %11 = alloca float, align 4
  %12 = alloca float, align 4
  %13 = alloca ptr, align 8
  %14 = alloca ptr, align 8
  %15 = alloca ptr, align 8
  %16 = alloca ptr, align 8
  %17 = alloca ptr, align 8
  %18 = alloca %"struct.faiss::(anonymous namespace)::SimilarityL2", align 8
  %19 = alloca i64, align 8
  %20 = alloca float, align 4
  store ptr %0, ptr %15, align 8
  store ptr %1, ptr %16, align 8
  store ptr %2, ptr %17, align 8
  %21 = load ptr, ptr %15, align 8
  %22 = load ptr, ptr %16, align 8
  call void @_ZN5faiss12_GLOBAL__N_112SimilarityL2ILi1EEC2EPKf(ptr noundef nonnull align 8 dereferenceable(20) %18, ptr noundef %22)
  store ptr %18, ptr %14, align 8
  %23 = load ptr, ptr %14, align 8
  %24 = getelementptr inbounds %"struct.faiss::(anonymous namespace)::SimilarityL2", ptr %23, i32 0, i32 2
  store float 0.000000e+00, ptr %24, align 8
  %25 = load ptr, ptr %23, align 8
  %26 = getelementptr inbounds %"struct.faiss::(anonymous namespace)::SimilarityL2", ptr %23, i32 0, i32 1
  store ptr %25, ptr %26, align 8
  store i64 0, ptr %19, align 8
  br label %27

27:                                               ; preds = %75, %3
  %28 = load i64, ptr %19, align 8
  %29 = getelementptr inbounds %"struct.faiss::(anonymous namespace)::DCTemplate.9", ptr %21, i32 0, i32 1
  %30 = getelementptr inbounds %"struct.faiss::(anonymous namespace)::QuantizerTemplate.6", ptr %29, i32 0, i32 1
  %31 = load i64, ptr %30, align 8
  %32 = icmp ult i64 %28, %31
  br i1 %32, label %33, label %78

33:                                               ; preds = %27
  %34 = getelementptr inbounds %"struct.faiss::(anonymous namespace)::DCTemplate.9", ptr %21, i32 0, i32 1
  %35 = load ptr, ptr %17, align 8
  %36 = load i64, ptr %19, align 8
  %37 = trunc i64 %36 to i32
  store ptr %34, ptr %6, align 8
  store ptr %35, ptr %7, align 8
  store i32 %37, ptr %8, align 4
  %38 = load ptr, ptr %6, align 8
  %39 = load ptr, ptr %7, align 8
  %40 = load i32, ptr %8, align 4
  store ptr %39, ptr %4, align 8
  store i32 %40, ptr %5, align 4
  %41 = load ptr, ptr %4, align 8
  %42 = load i32, ptr %5, align 4
  %43 = sdiv i32 %42, 2
  %44 = sext i32 %43 to i64
  %45 = getelementptr inbounds i8, ptr %41, i64 %44
  %46 = load i8, ptr %45, align 1
  %47 = zext i8 %46 to i32
  %48 = load i32, ptr %5, align 4
  %49 = and i32 %48, 1
  %50 = shl i32 %49, 2
  %51 = ashr i32 %47, %50
  %52 = and i32 %51, 15
  %53 = sitofp i32 %52 to float
  %54 = fadd float %53, 5.000000e-01
  %55 = fdiv float %54, 1.500000e+01
  store float %55, ptr %9, align 4
  %56 = getelementptr inbounds %"struct.faiss::(anonymous namespace)::QuantizerTemplate.6", ptr %38, i32 0, i32 2
  %57 = load float, ptr %56, align 8
  %58 = load float, ptr %9, align 4
  %59 = getelementptr inbounds %"struct.faiss::(anonymous namespace)::QuantizerTemplate.6", ptr %38, i32 0, i32 3
  %60 = load float, ptr %59, align 4
  %61 = call noundef float @llvm.fmuladd.f32(float %58, float %60, float %57)
  store float %61, ptr %20, align 4
  %62 = load float, ptr %20, align 4
  store ptr %18, ptr %10, align 8
  store float %62, ptr %11, align 4
  %63 = load ptr, ptr %10, align 8
  %64 = getelementptr inbounds %"struct.faiss::(anonymous namespace)::SimilarityL2", ptr %63, i32 0, i32 1
  %65 = load ptr, ptr %64, align 8
  %66 = getelementptr inbounds float, ptr %65, i32 1
  store ptr %66, ptr %64, align 8
  %67 = load float, ptr %65, align 4
  %68 = load float, ptr %11, align 4
  %69 = fsub float %67, %68
  store float %69, ptr %12, align 4
  %70 = load float, ptr %12, align 4
  %71 = load float, ptr %12, align 4
  %72 = getelementptr inbounds %"struct.faiss::(anonymous namespace)::SimilarityL2", ptr %63, i32 0, i32 2
  %73 = load float, ptr %72, align 8
  %74 = call float @llvm.fmuladd.f32(float %70, float %71, float %73)
  store float %74, ptr %72, align 8
  br label %75

75:                                               ; preds = %33
  %76 = load i64, ptr %19, align 8
  %77 = add i64 %76, 1
  store i64 %77, ptr %19, align 8
  br label %27, !llvm.loop !48

78:                                               ; preds = %27
  store ptr %18, ptr %13, align 8
  %79 = load ptr, ptr %13, align 8
  %80 = getelementptr inbounds %"struct.faiss::(anonymous namespace)::SimilarityL2", ptr %79, i32 0, i32 2
  %81 = load float, ptr %80, align 8
  ret float %81
}

; Function Attrs: mustprogress uwtable
define internal noundef float @_ZNK5faiss12_GLOBAL__N_110DCTemplateINS0_17QuantizerTemplateINS0_9Codec4bitELb1ELi1EEENS0_12SimilarityL2ILi1EEELi1EE13query_to_codeEPKh(ptr noundef nonnull align 8 dereferenceable(56) %0, ptr noundef %1) unnamed_addr #0 align 2 {
  %3 = alloca ptr, align 8
  %4 = alloca ptr, align 8
  store ptr %0, ptr %3, align 8
  store ptr %1, ptr %4, align 8
  %5 = load ptr, ptr %3, align 8
  %6 = getelementptr inbounds %"struct.faiss::ScalarQuantizer::SQDistanceComputer", ptr %5, i32 0, i32 1
  %7 = load ptr, ptr %6, align 8
  %8 = load ptr, ptr %4, align 8
  %9 = call noundef float @_ZNK5faiss12_GLOBAL__N_110DCTemplateINS0_17QuantizerTemplateINS0_9Codec4bitELb1ELi1EEENS0_12SimilarityL2ILi1EEELi1EE16compute_distanceEPKfPKh(ptr noundef nonnull align 8 dereferenceable(56) %5, ptr noundef %7, ptr noundef %8)
  ret float %9
}

; Function Attrs: mustprogress uwtable
define internal void @_ZNK5faiss12_GLOBAL__N_114IVFSQScannerL2INS0_10DCTemplateINS0_17QuantizerTemplateINS0_9Codec4bitELb1ELi1EEENS0_12SimilarityL2ILi1EEELi1EEELi1EE16scan_codes_rangeEmPKhPKlfRNS_16RangeQueryResultE(ptr noundef nonnull align 8 dereferenceable(144) %0, i64 noundef %1, ptr noundef %2, ptr noundef %3, float noundef %4, ptr noundef nonnull align 8 dereferenceable(24) %5) unnamed_addr #0 align 2 {
  %7 = alloca ptr, align 8
  %8 = alloca i64, align 8
  %9 = alloca ptr, align 8
  %10 = alloca ptr, align 8
  %11 = alloca float, align 4
  %12 = alloca ptr, align 8
  %13 = alloca i64, align 8
  %14 = alloca float, align 4
  %15 = alloca i64, align 8
  store ptr %0, ptr %7, align 8
  store i64 %1, ptr %8, align 8
  store ptr %2, ptr %9, align 8
  store ptr %3, ptr %10, align 8
  store float %4, ptr %11, align 4
  store ptr %5, ptr %12, align 8
  %16 = load ptr, ptr %7, align 8
  store i64 0, ptr %13, align 8
  br label %17

17:                                               ; preds = %61, %6
  %18 = load i64, ptr %13, align 8
  %19 = load i64, ptr %8, align 8
  %20 = icmp ult i64 %18, %19
  br i1 %20, label %21, label %68

21:                                               ; preds = %17
  %22 = getelementptr inbounds %"struct.faiss::InvertedListScanner", ptr %16, i32 0, i32 4
  %23 = load ptr, ptr %22, align 8
  %24 = load ptr, ptr %10, align 8
  %25 = load i64, ptr %13, align 8
  %26 = getelementptr inbounds i64, ptr %24, i64 %25
  %27 = load i64, ptr %26, align 8
  %28 = load ptr, ptr %23, align 8
  %29 = getelementptr inbounds ptr, ptr %28, i64 0
  %30 = load ptr, ptr %29, align 8
  %31 = call noundef zeroext i1 %30(ptr noundef nonnull align 8 dereferenceable(8) %23, i64 noundef %27)
  br i1 %31, label %33, label %32

32:                                               ; preds = %21
  br label %61

33:                                               ; preds = %21
  %34 = getelementptr inbounds %"struct.faiss::(anonymous namespace)::IVFSQScannerL2.31", ptr %16, i32 0, i32 1
  %35 = load ptr, ptr %9, align 8
  %36 = call noundef float @_ZNK5faiss12_GLOBAL__N_110DCTemplateINS0_17QuantizerTemplateINS0_9Codec4bitELb1ELi1EEENS0_12SimilarityL2ILi1EEELi1EE13query_to_codeEPKh(ptr noundef nonnull align 8 dereferenceable(56) %34, ptr noundef %35)
  store float %36, ptr %14, align 4
  %37 = load float, ptr %14, align 4
  %38 = load float, ptr %11, align 4
  %39 = fcmp olt float %37, %38
  br i1 %39, label %40, label %60

40:                                               ; preds = %33
  %41 = getelementptr inbounds %"struct.faiss::InvertedListScanner", ptr %16, i32 0, i32 3
  %42 = load i8, ptr %41, align 1
  %43 = trunc i8 %42 to i1
  br i1 %43, label %44, label %50

44:                                               ; preds = %40
  %45 = getelementptr inbounds %"struct.faiss::InvertedListScanner", ptr %16, i32 0, i32 1
  %46 = load i64, ptr %45, align 8
  %47 = shl i64 %46, 32
  %48 = load i64, ptr %13, align 8
  %49 = or i64 %47, %48
  br label %55

50:                                               ; preds = %40
  %51 = load ptr, ptr %10, align 8
  %52 = load i64, ptr %13, align 8
  %53 = getelementptr inbounds i64, ptr %51, i64 %52
  %54 = load i64, ptr %53, align 8
  br label %55

55:                                               ; preds = %50, %44
  %56 = phi i64 [ %49, %44 ], [ %54, %50 ]
  store i64 %56, ptr %15, align 8
  %57 = load ptr, ptr %12, align 8
  %58 = load float, ptr %14, align 4
  %59 = load i64, ptr %15, align 8
  call void @_ZN5faiss16RangeQueryResult3addEfl(ptr noundef nonnull align 8 dereferenceable(24) %57, float noundef %58, i64 noundef %59)
  br label %60

60:                                               ; preds = %55, %33
  br label %61

61:                                               ; preds = %60, %32
  %62 = load i64, ptr %13, align 8
  %63 = add i64 %62, 1
  store i64 %63, ptr %13, align 8
  %64 = getelementptr inbounds %"struct.faiss::InvertedListScanner", ptr %16, i32 0, i32 5
  %65 = load i64, ptr %64, align 8
  %66 = load ptr, ptr %9, align 8
  %67 = getelementptr inbounds i8, ptr %66, i64 %65
  store ptr %67, ptr %9, align 8
  br label %17, !llvm.loop !87

68:                                               ; preds = %17
  ret void
}