; Function Attrs: mustprogress uwtable
define internal void @_ZNK5faiss12_GLOBAL__N_114IVFSQScannerL2INS0_10DCTemplateINS0_17QuantizerTemplateINS0_9Codec4bitELb1ELi1EEENS0_12SimilarityL2ILi1EEELi1EEELi1EE16scan_codes_rangeEmPKhPKlfRNS_16RangeQueryResultE(ptr nocapture noundef nonnull readonly align 8 dereferenceable(144) %0, i64 noundef %1, ptr nocapture noundef readonly %2, ptr nocapture noundef readonly %3, float noundef %4, ptr noundef nonnull align 8 dereferenceable(24) %5) unnamed_addr #0 align 2 {
  %.not21 = icmp eq i64 %1, 0
  br i1 %.not21, label %._crit_edge, label %.lr.ph

.lr.ph:                                           ; preds = %6
  %7 = getelementptr inbounds i8, ptr %0, i64 24
  %8 = getelementptr inbounds i8, ptr %0, i64 80
  %9 = getelementptr inbounds i8, ptr %0, i64 64
  %10 = getelementptr inbounds i8, ptr %0, i64 88
  %11 = getelementptr inbounds i8, ptr %0, i64 92
  %12 = getelementptr inbounds i8, ptr %0, i64 17
  %13 = getelementptr inbounds i8, ptr %0, i64 8
  %14 = getelementptr inbounds i8, ptr %0, i64 32
  br label %15

15:                                               ; preds = %.lr.ph, %59
  %.019 = phi ptr [ %2, %.lr.ph ], [ %62, %59 ]
  %.01517 = phi i64 [ 0, %.lr.ph ], [ %60, %59 ]
  %16 = load ptr, ptr %7, align 8
  %17 = getelementptr inbounds i64, ptr %3, i64 %.01517
  %18 = load i64, ptr %17, align 8
  %19 = load ptr, ptr %16, align 8
  %20 = load ptr, ptr %19, align 8
  %21 = tail call noundef zeroext i1 %20(ptr noundef nonnull align 8 dereferenceable(8) %16, i64 noundef %18)
  br i1 %21, label %22, label %59

22:                                               ; preds = %15
  %23 = load i64, ptr %8, align 8
  %.not.i.i = icmp eq i64 %23, 0
  br i1 %.not.i.i, label %_ZNK5faiss12_GLOBAL__N_110DCTemplateINS0_17QuantizerTemplateINS0_9Codec4bitELb1ELi1EEENS0_12SimilarityL2ILi1EEELi1EE13query_to_codeEPKh.exit, label %.lr.ph.i.i

.lr.ph.i.i:                                       ; preds = %22
  %24 = load ptr, ptr %9, align 8
  %25 = load float, ptr %10, align 8
  %26 = load float, ptr %11, align 4
  br label %27

27:                                               ; preds = %27, %.lr.ph.i.i
  %.022.i.i = phi i64 [ 0, %.lr.ph.i.i ], [ %46, %27 ]
  %.sroa.5.021.i.i = phi float [ 0.000000e+00, %.lr.ph.i.i ], [ %45, %27 ]
  %.sroa.2.020.i.i = phi ptr [ %24, %.lr.ph.i.i ], [ %42, %27 ]
  %28 = trunc i64 %.022.i.i to i32
  %29 = sdiv i32 %28, 2
  %30 = sext i32 %29 to i64
  %31 = getelementptr inbounds i8, ptr %.019, i64 %30
  %32 = load i8, ptr %31, align 1
  %33 = zext i8 %32 to i32
  %34 = shl i32 %28, 2
  %35 = and i32 %34, 4
  %36 = lshr i32 %33, %35
  %37 = and i32 %36, 15
  %38 = sitofp i32 %37 to float
  %39 = fadd float %38, 5.000000e-01
  %40 = fdiv float %39, 1.500000e+01
  %41 = tail call noundef float @llvm.fmuladd.f32(float %40, float %26, float %25)
  %42 = getelementptr inbounds i8, ptr %.sroa.2.020.i.i, i64 4
  %43 = load float, ptr %.sroa.2.020.i.i, align 4
  %44 = fsub float %43, %41
  %45 = tail call float @llvm.fmuladd.f32(float %44, float %44, float %.sroa.5.021.i.i)
  %46 = add nuw i64 %.022.i.i, 1
  %exitcond.not.i.i = icmp eq i64 %46, %23
  br i1 %exitcond.not.i.i, label %_ZNK5faiss12_GLOBAL__N_110DCTemplateINS0_17QuantizerTemplateINS0_9Codec4bitELb1ELi1EEENS0_12SimilarityL2ILi1EEELi1EE13query_to_codeEPKh.exit, label %27, !llvm.loop !47

_ZNK5faiss12_GLOBAL__N_110DCTemplateINS0_17QuantizerTemplateINS0_9Codec4bitELb1ELi1EEENS0_12SimilarityL2ILi1EEELi1EE13query_to_codeEPKh.exit: ; preds = %27, %22
  %.sroa.5.0.lcssa.i.i = phi float [ 0.000000e+00, %22 ], [ %45, %27 ]
  %47 = fcmp olt float %.sroa.5.0.lcssa.i.i, %4
  br i1 %47, label %48, label %59

48:                                               ; preds = %_ZNK5faiss12_GLOBAL__N_110DCTemplateINS0_17QuantizerTemplateINS0_9Codec4bitELb1ELi1EEENS0_12SimilarityL2ILi1EEELi1EE13query_to_codeEPKh.exit
  %49 = load i8, ptr %12, align 1
  %50 = and i8 %49, 1
  %.not = icmp eq i8 %50, 0
  br i1 %.not, label %55, label %51

51:                                               ; preds = %48
  %52 = load i64, ptr %13, align 8
  %53 = shl i64 %52, 32
  %54 = or i64 %53, %.01517
  br label %57

55:                                               ; preds = %48
  %56 = load i64, ptr %17, align 8
  br label %57

57:                                               ; preds = %55, %51
  %58 = phi i64 [ %54, %51 ], [ %56, %55 ]
  tail call void @_ZN5faiss16RangeQueryResult3addEfl(ptr noundef nonnull align 8 dereferenceable(24) %5, float noundef %.sroa.5.0.lcssa.i.i, i64 noundef %58)
  br label %59

59:                                               ; preds = %_ZNK5faiss12_GLOBAL__N_110DCTemplateINS0_17QuantizerTemplateINS0_9Codec4bitELb1ELi1EEENS0_12SimilarityL2ILi1EEELi1EE13query_to_codeEPKh.exit, %57, %15
  %60 = add nuw i64 %.01517, 1
  %61 = load i64, ptr %14, align 8
  %62 = getelementptr inbounds i8, ptr %.019, i64 %61
  %exitcond.not = icmp eq i64 %60, %1
  br i1 %exitcond.not, label %._crit_edge, label %15, !llvm.loop !86

._crit_edge:                                      ; preds = %59, %6
  ret void
}